target datalayout = "e-m:e-p270:32:32-p271:32:32-p272:64:64-i64:64-i128:128-f80:128-n8:16:32:64-S128"
target triple = "x86_64-pc-linux-gnu"

%"class.llvm::VersionTuple" = type { i64, i64 }
%"class.llvm::MachObjectWriter" = type { %"class.llvm::MCObjectWriter", %"class.std::unique_ptr", %"class.llvm::DenseMap", %"class.std::vector.10", %"class.llvm::DenseMap.15", %"class.std::vector.18", %"class.llvm::DenseMap.23", %"class.llvm::SmallVector.26", %"class.llvm::StringTableBuilder", %"class.std::vector.34", %"class.std::vector.34", %"class.std::vector.34", %"class.llvm::MCLOHContainer", %"struct.llvm::MachObjectWriter::VersionInfoType", %"struct.llvm::MachObjectWriter::VersionInfoType", %"class.std::vector.45", %"struct.llvm::support::endian::Writer" }
%"class.llvm::MCObjectWriter" = type { ptr, %"class.llvm::SmallVector", %"class.std::__cxx11::basic_string", %"class.std::vector", i8, i8, %"class.llvm::SmallVector.3" }
%"class.llvm::SmallVector" = type { %"class.llvm::SmallVectorImpl" }
%"class.llvm::SmallVectorImpl" = type { %"class.llvm::SmallVectorTemplateBase" }
%"class.llvm::SmallVectorTemplateBase" = type { %"class.llvm::SmallVectorTemplateCommon" }
%"class.llvm::SmallVectorTemplateCommon" = type { %"class.llvm::SmallVectorBase" }
%"class.llvm::SmallVectorBase" = type { ptr, i32, i32 }
%"class.std::__cxx11::basic_string" = type { %"struct.std::__cxx11::basic_string<char>::_Alloc_hider", i64, %union.anon }
%"struct.std::__cxx11::basic_string<char>::_Alloc_hider" = type { ptr }
%union.anon = type { i64, [8 x i8] }
%"class.std::vector" = type { %"struct.std::_Vector_base" }
%"struct.std::_Vector_base" = type { %"struct.std::_Vector_base<const llvm::MCSymbol *, std::allocator<const llvm::MCSymbol *>>::_Vector_impl" }
%"struct.std::_Vector_base<const llvm::MCSymbol *, std::allocator<const llvm::MCSymbol *>>::_Vector_impl" = type { %"struct.std::_Vector_base<const llvm::MCSymbol *, std::allocator<const llvm::MCSymbol *>>::_Vector_impl_data" }
%"struct.std::_Vector_base<const llvm::MCSymbol *, std::allocator<const llvm::MCSymbol *>>::_Vector_impl_data" = type { ptr, ptr, ptr }
%"class.llvm::SmallVector.3" = type { %"class.llvm::SmallVectorImpl.4" }
%"class.llvm::SmallVectorImpl.4" = type { %"class.llvm::SmallVectorTemplateBase.5" }
%"class.llvm::SmallVectorTemplateBase.5" = type { %"class.llvm::SmallVectorTemplateCommon.6" }
%"class.llvm::SmallVectorTemplateCommon.6" = type { %"class.llvm::SmallVectorBase" }
%"class.std::unique_ptr" = type { %"struct.std::__uniq_ptr_data" }
%"struct.std::__uniq_ptr_data" = type { %"class.std::__uniq_ptr_impl" }
%"class.std::__uniq_ptr_impl" = type { %"class.std::tuple" }
%"class.std::tuple" = type { %"struct.std::_Tuple_impl" }
%"struct.std::_Tuple_impl" = type { %"struct.std::_Head_base.9" }
%"struct.std::_Head_base.9" = type { ptr }
%"class.llvm::DenseMap" = type <{ ptr, i32, i32, i32, [4 x i8] }>
%"class.std::vector.10" = type { %"struct.std::_Vector_base.11" }
%"struct.std::_Vector_base.11" = type { %"struct.std::_Vector_base<llvm::MachObjectWriter::IndirectSymbolData, std::allocator<llvm::MachObjectWriter::IndirectSymbolData>>::_Vector_impl" }
%"struct.std::_Vector_base<llvm::MachObjectWriter::IndirectSymbolData, std::allocator<llvm::MachObjectWriter::IndirectSymbolData>>::_Vector_impl" = type { %"struct.std::_Vector_base<llvm::MachObjectWriter::IndirectSymbolData, std::allocator<llvm::MachObjectWriter::IndirectSymbolData>>::_Vector_impl_data" }
%"struct.std::_Vector_base<llvm::MachObjectWriter::IndirectSymbolData, std::allocator<llvm::MachObjectWriter::IndirectSymbolData>>::_Vector_impl_data" = type { ptr, ptr, ptr }
%"class.llvm::DenseMap.15" = type <{ ptr, i32, i32, i32, [4 x i8] }>
%"class.std::vector.18" = type { %"struct.std::_Vector_base.19" }
%"struct.std::_Vector_base.19" = type { %"struct.std::_Vector_base<llvm::MachObjectWriter::DataRegionData, std::allocator<llvm::MachObjectWriter::DataRegionData>>::_Vector_impl" }
%"struct.std::_Vector_base<llvm::MachObjectWriter::DataRegionData, std::allocator<llvm::MachObjectWriter::DataRegionData>>::_Vector_impl" = type { %"struct.std::_Vector_base<llvm::MachObjectWriter::DataRegionData, std::allocator<llvm::MachObjectWriter::DataRegionData>>::_Vector_impl_data" }
%"struct.std::_Vector_base<llvm::MachObjectWriter::DataRegionData, std::allocator<llvm::MachObjectWriter::DataRegionData>>::_Vector_impl_data" = type { ptr, ptr, ptr }
%"class.llvm::DenseMap.23" = type <{ ptr, i32, i32, i32, [4 x i8] }>
%"class.llvm::SmallVector.26" = type { %"class.llvm::SmallVectorImpl.27" }
%"class.llvm::SmallVectorImpl.27" = type { %"class.llvm::SmallVectorTemplateBase.28" }
%"class.llvm::SmallVectorTemplateBase.28" = type { %"class.llvm::SmallVectorTemplateCommon.29" }
%"class.llvm::SmallVectorTemplateCommon.29" = type { %"class.llvm::SmallVectorBase" }
%"class.llvm::StringTableBuilder" = type <{ %"class.llvm::DenseMap.31", i64, i32, %"struct.llvm::Align", i8, [2 x i8] }>
%"class.llvm::DenseMap.31" = type <{ ptr, i32, i32, i32, [4 x i8] }>
%"struct.llvm::Align" = type { i8 }
%"class.std::vector.34" = type { %"struct.std::_Vector_base.35" }
%"struct.std::_Vector_base.35" = type { %"struct.std::_Vector_base<llvm::MachObjectWriter::MachSymbolData, std::allocator<llvm::MachObjectWriter::MachSymbolData>>::_Vector_impl" }
%"struct.std::_Vector_base<llvm::MachObjectWriter::MachSymbolData, std::allocator<llvm::MachObjectWriter::MachSymbolData>>::_Vector_impl" = type { %"struct.std::_Vector_base<llvm::MachObjectWriter::MachSymbolData, std::allocator<llvm::MachObjectWriter::MachSymbolData>>::_Vector_impl_data" }
%"struct.std::_Vector_base<llvm::MachObjectWriter::MachSymbolData, std::allocator<llvm::MachObjectWriter::MachSymbolData>>::_Vector_impl_data" = type { ptr, ptr, ptr }
%"class.llvm::MCLOHContainer" = type { i64, %"class.llvm::SmallVector.39" }
%"class.llvm::SmallVector.39" = type { %"class.llvm::SmallVectorImpl.40", %"struct.llvm::SmallVectorStorage.43" }
%"class.llvm::SmallVectorImpl.40" = type { %"class.llvm::SmallVectorTemplateBase.41" }
%"class.llvm::SmallVectorTemplateBase.41" = type { %"class.llvm::SmallVectorTemplateCommon.42" }
%"class.llvm::SmallVectorTemplateCommon.42" = type { %"class.llvm::SmallVectorBase" }
%"struct.llvm::SmallVectorStorage.43" = type { [1536 x i8] }
%"struct.llvm::MachObjectWriter::VersionInfoType" = type <{ i8, [3 x i8], %union.anon.44, i32, i32, i32, %"class.llvm::VersionTuple" }>
%union.anon.44 = type { i32 }
%"class.std::vector.45" = type { %"struct.std::_Vector_base.46" }
%"struct.std::_Vector_base.46" = type { %"struct.std::_Vector_base<std::vector<std::__cxx11::basic_string<char>>, std::allocator<std::vector<std::__cxx11::basic_string<char>>>>::_Vector_impl" }
%"struct.std::_Vector_base<std::vector<std::__cxx11::basic_string<char>>, std::allocator<std::vector<std::__cxx11::basic_string<char>>>>::_Vector_impl" = type { %"struct.std::_Vector_base<std::vector<std::__cxx11::basic_string<char>>, std::allocator<std::vector<std::__cxx11::basic_string<char>>>>::_Vector_impl_data" }
%"struct.std::_Vector_base<std::vector<std::__cxx11::basic_string<char>>, std::allocator<std::vector<std::__cxx11::basic_string<char>>>>::_Vector_impl_data" = type { ptr, ptr, ptr }
%"struct.llvm::support::endian::Writer" = type <{ ptr, i32, [4 x i8] }>
%"class.llvm::StringRef" = type { ptr, i64 }
%"class.llvm::raw_ostream" = type { ptr, i32, ptr, ptr, ptr, i8, i32 }

; Function Attrs: mustprogress nounwind uwtable
define linkonce_odr hidden noundef ptr @_ZNK4llvm9StringRef4dataEv(ptr noundef nonnull align 8 dereferenceable(16) %0) #0 comdat align 2 {
  %2 = alloca ptr, align 8
  store ptr %0, ptr %2, align 8
  %3 = load ptr, ptr %2, align 8
  %4 = getelementptr inbounds nuw %"class.llvm::StringRef", ptr %3, i32 0, i32 0
  %5 = load ptr, ptr %4, align 8
  ret ptr %5
}

; Function Attrs: mustprogress nounwind uwtable
define linkonce_odr hidden noundef i64 @_ZNK4llvm9StringRef4sizeEv(ptr noundef nonnull align 8 dereferenceable(16) %0) #0 comdat align 2 {
  %2 = alloca ptr, align 8
  store ptr %0, ptr %2, align 8
  %3 = load ptr, ptr %2, align 8
  %4 = getelementptr inbounds nuw %"class.llvm::StringRef", ptr %3, i32 0, i32 1
  %5 = load i64, ptr %4, align 8
  ret i64 %5
}

; Function Attrs: mustprogress nounwind uwtable
define linkonce_odr hidden noundef nonnull align 8 dereferenceable(48) ptr @_ZN4llvm11raw_ostreamlsENS_9StringRefE(ptr noundef nonnull align 8 dereferenceable(48) %0, ptr %1, i64 %2) #0 comdat align 2 {
  %4 = alloca ptr, align 8
  %5 = alloca %"class.llvm::StringRef", align 8
  %6 = alloca ptr, align 8
  %7 = alloca i64, align 8
  %8 = getelementptr inbounds nuw { ptr, i64 }, ptr %5, i32 0, i32 0
  store ptr %1, ptr %8, align 8
  %9 = getelementptr inbounds nuw { ptr, i64 }, ptr %5, i32 0, i32 1
  store i64 %2, ptr %9, align 8
  store ptr %0, ptr %6, align 8
  %10 = load ptr, ptr %6, align 8
  %11 = call noundef i64 @_ZNK4llvm9StringRef4sizeEv(ptr noundef nonnull align 8 dereferenceable(16) %5)
  store i64 %11, ptr %7, align 8
  %12 = load i64, ptr %7, align 8
  %13 = getelementptr inbounds nuw %"class.llvm::raw_ostream", ptr %10, i32 0, i32 3
  %14 = load ptr, ptr %13, align 8
  %15 = getelementptr inbounds nuw %"class.llvm::raw_ostream", ptr %10, i32 0, i32 4
  %16 = load ptr, ptr %15, align 8
  %17 = ptrtoint ptr %14 to i64
  %18 = ptrtoint ptr %16 to i64
  %19 = sub i64 %17, %18
  %20 = icmp ugt i64 %12, %19
  br i1 %20, label %21, label %25

21:                                               ; preds = %3
  %22 = call noundef ptr @_ZNK4llvm9StringRef4dataEv(ptr noundef nonnull align 8 dereferenceable(16) %5)
  %23 = load i64, ptr %7, align 8
  %24 = call noundef nonnull align 8 dereferenceable(48) ptr @_ZN4llvm11raw_ostream5writeEPKcm(ptr noundef nonnull align 8 dereferenceable(48) %10, ptr noundef %22, i64 noundef %23)
  store ptr %24, ptr %4, align 8
  br label %38

25:                                               ; preds = %3
  %26 = load i64, ptr %7, align 8
  %27 = icmp ne i64 %26, 0
  br i1 %27, label %28, label %37

28:                                               ; preds = %25
  %29 = getelementptr inbounds nuw %"class.llvm::raw_ostream", ptr %10, i32 0, i32 4
  %30 = load ptr, ptr %29, align 8
  %31 = call noundef ptr @_ZNK4llvm9StringRef4dataEv(ptr noundef nonnull align 8 dereferenceable(16) %5)
  %32 = load i64, ptr %7, align 8
  call void @llvm.memcpy.p0.p0.i64(ptr align 1 %30, ptr align 1 %31, i64 %32, i1 false)
  %33 = load i64, ptr %7, align 8
  %34 = getelementptr inbounds nuw %"class.llvm::raw_ostream", ptr %10, i32 0, i32 4
  %35 = load ptr, ptr %34, align 8
  %36 = getelementptr inbounds i8, ptr %35, i64 %33
  store ptr %36, ptr %34, align 8
  br label %37

37:                                               ; preds = %28, %25
  store ptr %10, ptr %4, align 8
  br label %38

38:                                               ; preds = %37, %21
  %39 = load ptr, ptr %4, align 8
  ret ptr %39
}

; Function Attrs: mustprogress nounwind uwtable
define dso_local void @_ZN4llvm16MachObjectWriter16writeWithPaddingENS_9StringRefEm(ptr noundef nonnull align 8 dereferenceable(2032) %0, ptr %1, i64 %2, i64 noundef %3) #0 align 2 {
  %5 = alloca %"class.llvm::StringRef", align 8
  %6 = alloca ptr, align 8
  %7 = alloca i64, align 8
  %8 = alloca %"class.llvm::StringRef", align 8
  %9 = getelementptr inbounds nuw { ptr, i64 }, ptr %5, i32 0, i32 0
  store ptr %1, ptr %9, align 8
  %10 = getelementptr inbounds nuw { ptr, i64 }, ptr %5, i32 0, i32 1
  store i64 %2, ptr %10, align 8
  store ptr %0, ptr %6, align 8
  store i64 %3, ptr %7, align 8
  %11 = load ptr, ptr %6, align 8
  %12 = getelementptr inbounds nuw %"class.llvm::MachObjectWriter", ptr %11, i32 0, i32 16
  %13 = getelementptr inbounds nuw %"struct.llvm::support::endian::Writer", ptr %12, i32 0, i32 0
  %14 = load ptr, ptr %13, align 8
  call void @llvm.memcpy.p0.p0.i64(ptr align 8 %8, ptr align 8 %5, i64 16, i1 false)
  %15 = getelementptr inbounds nuw { ptr, i64 }, ptr %8, i32 0, i32 0
  %16 = load ptr, ptr %15, align 8
  %17 = getelementptr inbounds nuw { ptr, i64 }, ptr %8, i32 0, i32 1
  %18 = load i64, ptr %17, align 8
  %19 = call noundef nonnull align 8 dereferenceable(48) ptr @_ZN4llvm11raw_ostreamlsENS_9StringRefE(ptr noundef nonnull align 8 dereferenceable(48) %14, ptr %16, i64 %18)
  %20 = getelementptr inbounds nuw %"class.llvm::MachObjectWriter", ptr %11, i32 0, i32 16
  %21 = getelementptr inbounds nuw %"struct.llvm::support::endian::Writer", ptr %20, i32 0, i32 0
  %22 = load ptr, ptr %21, align 8
  %23 = load i64, ptr %7, align 8
  %24 = call noundef i64 @_ZNK4llvm9StringRef4sizeEv(ptr noundef nonnull align 8 dereferenceable(16) %5)
  %25 = sub i64 %23, %24
  %26 = trunc i64 %25 to i32
  %27 = call noundef nonnull align 8 dereferenceable(48) ptr @_ZN4llvm11raw_ostream11write_zerosEj(ptr noundef nonnull align 8 dereferenceable(48) %22, i32 noundef %26)
  ret void
}