; Function Attrs: mustprogress nounwind uwtable
define dso_local void @_ZN4llvm16MachObjectWriter16writeWithPaddingENS_9StringRefEm(ptr nocapture noundef nonnull readonly align 8 dereferenceable(2032) %0, ptr %1, i64 %2, i64 noundef %3) local_unnamed_addr #0 align 2 {
  %5 = getelementptr inbounds nuw i8, ptr %0, i64 2016
  %6 = load ptr, ptr %5, align 8
  %7 = getelementptr inbounds nuw i8, ptr %6, i64 24
  %8 = load ptr, ptr %7, align 8
  %9 = getelementptr inbounds nuw i8, ptr %6, i64 32
  %10 = load ptr, ptr %9, align 8
  %11 = ptrtoint ptr %8 to i64
  %12 = ptrtoint ptr %10 to i64
  %13 = sub i64 %11, %12
  %14 = icmp ugt i64 %2, %13
  br i1 %14, label %15, label %17

15:                                               ; preds = %4
  %16 = tail call noundef nonnull align 8 dereferenceable(48) ptr @_ZN4llvm11raw_ostream5writeEPKcm(ptr noundef nonnull align 8 dereferenceable(48) %6, ptr noundef %1, i64 noundef %2) #19
  br label %_ZN4llvm11raw_ostreamlsENS_9StringRefE.exit

17:                                               ; preds = %4
  %.not.i = icmp eq i64 %2, 0
  br i1 %.not.i, label %_ZN4llvm11raw_ostreamlsENS_9StringRefE.exit, label %18

18:                                               ; preds = %17
  tail call void @llvm.memcpy.p0.p0.i64(ptr align 1 %10, ptr align 1 %1, i64 %2, i1 false)
  %19 = load ptr, ptr %9, align 8
  %20 = getelementptr inbounds i8, ptr %19, i64 %2
  store ptr %20, ptr %9, align 8
  br label %_ZN4llvm11raw_ostreamlsENS_9StringRefE.exit

_ZN4llvm11raw_ostreamlsENS_9StringRefE.exit:      ; preds = %15, %17, %18
  %21 = load ptr, ptr %5, align 8
  %22 = sub i64 %3, %2
  %23 = trunc i64 %22 to i32
  %24 = tail call noundef nonnull align 8 dereferenceable(48) ptr @_ZN4llvm11raw_ostream11write_zerosEj(ptr noundef nonnull align 8 dereferenceable(48) %21, i32 noundef %23) #19
  ret void
}